target datalayout = "e-m:e-p270:32:32-p271:32:32-p272:64:64-i64:64-i128:128-f80:128-n8:16:32:64-S128"
target triple = "x86_64-pc-linux-gnu"

%struct._address = type { i32, i32, ptr, ptr }
%struct._packet_info = type { ptr, ptr, i32, i32, %struct.nstime_t, %struct.nstime_t, %struct.nstime_t, i8, ptr, ptr, ptr, ptr, %struct._address, %struct._address, %struct._address, %struct._address, %struct._address, %struct._address, i32, ptr, i8, [3 x i8], %struct.anon.1, i32, i32, i32, i32, ptr, i8, ptr, ptr, i16, i16, i32, i32, i16, i32, i32, ptr, ptr, ptr, i8, i8, i16, i16, i16, i32, i16, i16, ptr, ptr, ptr, ptr, ptr, i32, i32 }
%struct.nstime_t = type { i64, i32 }
%struct.anon.1 = type { i8, [3 x i8] }

@http_tcp_handle = internal global ptr null, align 8
@.str.532 = private unnamed_addr constant [8 x i8] c"HTTP/1.\00", align 1

; Function Attrs: null_pointer_is_valid sspstrong uwtable
define internal zeroext i1 @dissect_http_heur_tcp(ptr noundef %0, ptr noundef %1, ptr noundef %2, ptr noundef %3) #0 {
  %5 = alloca i1, align 1
  %6 = alloca ptr, align 8
  %7 = alloca ptr, align 8
  %8 = alloca ptr, align 8
  %9 = alloca ptr, align 8
  %10 = alloca i32, align 4
  %11 = alloca i32, align 4
  %12 = alloca i32, align 4
  %13 = alloca ptr, align 8
  %14 = alloca i32, align 4
  store ptr %0, ptr %6, align 8
  store ptr %1, ptr %7, align 8
  store ptr %2, ptr %8, align 8
  store ptr %3, ptr %9, align 8
  call void @llvm.lifetime.start.p0(i64 4, ptr %10) #19
  store i32 0, ptr %10, align 4
  call void @llvm.lifetime.start.p0(i64 4, ptr %11) #19
  call void @llvm.lifetime.start.p0(i64 4, ptr %12) #19
  call void @llvm.lifetime.start.p0(i64 8, ptr %13) #19
  %15 = load ptr, ptr %6, align 8
  %16 = load i32, ptr %10, align 4
  %17 = call i32 @tvb_find_line_end(ptr noundef %15, i32 noundef %16, i32 noundef -1, ptr noundef %11, i1 noundef zeroext true)
  store i32 %17, ptr %12, align 4
  %18 = load i32, ptr %12, align 4
  %19 = icmp eq i32 %18, -1
  br i1 %19, label %23, label %20

20:                                               ; preds = %4
  %21 = load i32, ptr %12, align 4
  %22 = icmp eq i32 %21, 8
  br i1 %22, label %23, label %24

23:                                               ; preds = %20, %4
  store i1 false, ptr %5, align 1
  store i32 1, ptr %14, align 4
  br label %48

24:                                               ; preds = %20
  %25 = load ptr, ptr %6, align 8
  %26 = load i32, ptr %12, align 4
  %27 = sub i32 %26, 8
  %28 = call i32 @tvb_strncaseeql(ptr noundef %25, i32 noundef %27, ptr noundef @.str.532, i64 noundef 7)
  %29 = icmp eq i32 %28, 0
  br i1 %29, label %34, label %30

30:                                               ; preds = %24
  %31 = load ptr, ptr %6, align 8
  %32 = call i32 @tvb_strncaseeql(ptr noundef %31, i32 noundef 0, ptr noundef @.str.532, i64 noundef 7)
  %33 = icmp eq i32 %32, 0
  br i1 %33, label %34, label %47

34:                                               ; preds = %30, %24
  %35 = load ptr, ptr %7, align 8
  %36 = call ptr @find_or_create_conversation(ptr noundef %35)
  store ptr %36, ptr %13, align 8
  %37 = load ptr, ptr %13, align 8
  %38 = load ptr, ptr %7, align 8
  %39 = getelementptr inbounds nuw %struct._packet_info, ptr %38, i32 0, i32 3
  %40 = load i32, ptr %39, align 4
  %41 = load ptr, ptr @http_tcp_handle, align 8
  call void @conversation_set_dissector_from_frame_number(ptr noundef %37, i32 noundef %40, ptr noundef %41)
  %42 = load ptr, ptr %6, align 8
  %43 = load ptr, ptr %7, align 8
  %44 = load ptr, ptr %8, align 8
  %45 = load ptr, ptr %9, align 8
  %46 = call i32 @dissect_http_tcp(ptr noundef %42, ptr noundef %43, ptr noundef %44, ptr noundef %45)
  store i1 true, ptr %5, align 1
  store i32 1, ptr %14, align 4
  br label %48

47:                                               ; preds = %30
  store i1 false, ptr %5, align 1
  store i32 1, ptr %14, align 4
  br label %48

48:                                               ; preds = %47, %34, %23
  call void @llvm.lifetime.end.p0(i64 8, ptr %13) #19
  call void @llvm.lifetime.end.p0(i64 4, ptr %12) #19
  call void @llvm.lifetime.end.p0(i64 4, ptr %11) #19
  call void @llvm.lifetime.end.p0(i64 4, ptr %10) #19
  %49 = load i1, ptr %5, align 1
  ret i1 %49
}