; Function Attrs: null_pointer_is_valid sspstrong uwtable
define internal noundef zeroext i1 @dissect_http_heur_tcp(ptr noundef %0, ptr noundef %1, ptr noundef %2, ptr noundef %3) #0 {
  %5 = alloca i32, align 4
  call void @llvm.lifetime.start.p0(i64 4, ptr nonnull %5) #21
  %6 = call i32 @tvb_find_line_end(ptr noundef %0, i32 noundef 0, i32 noundef -1, ptr noundef nonnull %5, i1 noundef zeroext true)
  switch i32 %6, label %7 [
    i32 -1, label %20
    i32 8, label %20
  ]

7:                                                ; preds = %4
  %8 = add i32 %6, -8
  %9 = call i32 @tvb_strncaseeql(ptr noundef %0, i32 noundef %8, ptr noundef nonnull @.str.532, i64 noundef 7)
  %10 = icmp eq i32 %9, 0
  br i1 %10, label %14, label %11

11:                                               ; preds = %7
  %12 = call i32 @tvb_strncaseeql(ptr noundef %0, i32 noundef 0, ptr noundef nonnull @.str.532, i64 noundef 7)
  %13 = icmp eq i32 %12, 0
  br i1 %13, label %14, label %20

14:                                               ; preds = %11, %7
  %15 = call ptr @find_or_create_conversation(ptr noundef %1)
  %16 = getelementptr inbounds nuw i8, ptr %1, i64 20
  %17 = load i32, ptr %16, align 4
  %18 = load ptr, ptr @http_tcp_handle, align 8
  call void @conversation_set_dissector_from_frame_number(ptr noundef %15, i32 noundef %17, ptr noundef %18)
  %19 = call i32 @dissect_http_tcp(ptr noundef %0, ptr noundef %1, ptr noundef %2, ptr noundef %3)
  br label %20

20:                                               ; preds = %11, %4, %4, %14
  %.0 = phi i1 [ true, %14 ], [ false, %4 ], [ false, %4 ], [ false, %11 ]
  call void @llvm.lifetime.end.p0(i64 4, ptr nonnull %5) #21
  ret i1 %.0
}